target datalayout = "e-m:e-p270:32:32-p271:32:32-p272:64:64-i64:64-i128:128-f80:128-n8:16:32:64-S128"
target triple = "x86_64-pc-linux-gnu"

@pres_ctx_oid_table = internal global ptr null, align 8
@.str.184 = private unnamed_addr constant [24 x i8] c"PRES Users Context List\00", align 1
@.str.185 = private unnamed_addr constant [18 x i8] c"pres_context_list\00", align 1
@pres_users = internal global ptr null, align 8
@num_pres_users = internal global i32 0, align 4
@.str.186 = private unnamed_addr constant [18 x i8] c"ChPresContextList\00", align 1
@.str.187 = private unnamed_addr constant [35 x i8] c"ISO 8823 OSI Presentation Protocol\00", align 1
@.str.188 = private unnamed_addr constant [5 x i8] c"PRES\00", align 1
@.str.189 = private unnamed_addr constant [5 x i8] c"pres\00", align 1
@proto_pres = internal global i32 0, align 4
@.str.190 = private unnamed_addr constant [52 x i8] c"ISO 9576-1 OSI Connectionless Presentation Protocol\00", align 1
@.str.191 = private unnamed_addr constant [7 x i8] c"CLPRES\00", align 1
@.str.192 = private unnamed_addr constant [7 x i8] c"clpres\00", align 1
@proto_clpres = internal global i32 0, align 4
@.str.193 = private unnamed_addr constant [12 x i8] c"users_table\00", align 1
@.str.194 = private unnamed_addr constant [19 x i8] c"Users Context List\00", align 1
@.str.195 = private unnamed_addr constant [100 x i8] c"A table that enumerates user protocols to be used against specific presentation context identifiers\00", align 1

; Function Attrs: null_pointer_is_valid sspstrong uwtable
define hidden void @proto_register_pres() #0 {
  %1 = alloca ptr, align 8
  %2 = alloca ptr, align 8
  %3 = alloca ptr, align 8
  call void @llvm.lifetime.start.p0(i64 8, ptr %1) #6
  %4 = call ptr @uat_new(ptr noundef @.str.184, i64 noundef 16, ptr noundef @.str.185, i1 noundef zeroext true, ptr noundef @pres_users, ptr noundef @num_pres_users, i32 noundef 1, ptr noundef @.str.186, ptr noundef @pres_copy_cb, ptr noundef null, ptr noundef @pres_free_cb, ptr noundef null, ptr noundef null, ptr noundef @proto_register_pres.users_flds)
  store ptr %4, ptr %1, align 8
  call void @llvm.lifetime.start.p0(i64 8, ptr %2) #6
  call void @llvm.lifetime.start.p0(i64 8, ptr %3) #6
  %5 = call i32 @proto_register_protocol(ptr noundef @.str.187, ptr noundef @.str.188, ptr noundef @.str.189)
  store i32 %5, ptr @proto_pres, align 4
  %6 = load i32, ptr @proto_pres, align 4
  %7 = call ptr @register_dissector(ptr noundef @.str.189, ptr noundef @dissect_pres, i32 noundef %6)
  %8 = call i32 @proto_register_protocol(ptr noundef @.str.190, ptr noundef @.str.191, ptr noundef @.str.192)
  store i32 %8, ptr @proto_clpres, align 4
  %9 = load i32, ptr @proto_pres, align 4
  call void @proto_register_field_array(i32 noundef %9, ptr noundef @proto_register_pres.hf, i32 noundef 82)
  call void @proto_register_subtree_array(ptr noundef @proto_register_pres.ett, i32 noundef 37)
  %10 = load i32, ptr @proto_pres, align 4
  %11 = call ptr @expert_register_protocol(i32 noundef %10)
  store ptr %11, ptr %2, align 8
  %12 = load ptr, ptr %2, align 8
  call void @expert_register_field_array(ptr noundef %12, ptr noundef @proto_register_pres.ei, i32 noundef 3)
  %13 = call ptr @wmem_epan_scope()
  %14 = call ptr @wmem_file_scope()
  %15 = call noalias ptr @wmem_map_new_autoreset(ptr noundef %13, ptr noundef %14, ptr noundef @pres_ctx_oid_hash, ptr noundef @pres_ctx_oid_equal)
  store ptr %15, ptr @pres_ctx_oid_table, align 8
  %16 = load i32, ptr @proto_pres, align 4
  %17 = call ptr @prefs_register_protocol(i32 noundef %16, ptr noundef null)
  store ptr %17, ptr %3, align 8
  %18 = load ptr, ptr %3, align 8
  %19 = load ptr, ptr %1, align 8
  call void @prefs_register_uat_preference(ptr noundef %18, ptr noundef @.str.193, ptr noundef @.str.194, ptr noundef @.str.195, ptr noundef %19)
  call void @llvm.lifetime.end.p0(i64 8, ptr %3) #6
  call void @llvm.lifetime.end.p0(i64 8, ptr %2) #6
  call void @llvm.lifetime.end.p0(i64 8, ptr %1) #6
  ret void
}