; Function Attrs: null_pointer_is_valid sspstrong uwtable
define hidden void @proto_register_pres() local_unnamed_addr #0 {
  %1 = tail call ptr @uat_new(ptr noundef nonnull @.str.184, i64 noundef 16, ptr noundef nonnull @.str.185, i1 noundef zeroext true, ptr noundef nonnull @pres_users, ptr noundef nonnull @num_pres_users, i32 noundef 1, ptr noundef nonnull @.str.186, ptr noundef nonnull @pres_copy_cb, ptr noundef null, ptr noundef nonnull @pres_free_cb, ptr noundef null, ptr noundef null, ptr noundef nonnull @proto_register_pres.users_flds)
  %2 = tail call i32 @proto_register_protocol(ptr noundef nonnull @.str.187, ptr noundef nonnull @.str.188, ptr noundef nonnull @.str.189)
  store i32 %2, ptr @proto_pres, align 4
  %3 = tail call ptr @register_dissector(ptr noundef nonnull @.str.189, ptr noundef nonnull @dissect_pres, i32 noundef %2)
  %4 = tail call i32 @proto_register_protocol(ptr noundef nonnull @.str.190, ptr noundef nonnull @.str.191, ptr noundef nonnull @.str.192)
  store i32 %4, ptr @proto_clpres, align 4
  %5 = load i32, ptr @proto_pres, align 4
  tail call void @proto_register_field_array(i32 noundef %5, ptr noundef nonnull @proto_register_pres.hf, i32 noundef 82)
  tail call void @proto_register_subtree_array(ptr noundef nonnull @proto_register_pres.ett, i32 noundef 37)
  %6 = load i32, ptr @proto_pres, align 4
  %7 = tail call ptr @expert_register_protocol(i32 noundef %6)
  tail call void @expert_register_field_array(ptr noundef %7, ptr noundef nonnull @proto_register_pres.ei, i32 noundef 3)
  %8 = tail call ptr @wmem_epan_scope()
  %9 = tail call ptr @wmem_file_scope()
  %10 = tail call noalias ptr @wmem_map_new_autoreset(ptr noundef %8, ptr noundef %9, ptr noundef nonnull @pres_ctx_oid_hash, ptr noundef nonnull @pres_ctx_oid_equal)
  store ptr %10, ptr @pres_ctx_oid_table, align 8
  %11 = load i32, ptr @proto_pres, align 4
  %12 = tail call ptr @prefs_register_protocol(i32 noundef %11, ptr noundef null)
  tail call void @prefs_register_uat_preference(ptr noundef %12, ptr noundef nonnull @.str.193, ptr noundef nonnull @.str.194, ptr noundef nonnull @.str.195, ptr noundef %1)
  ret void
}